target datalayout = "e-m:e-p270:32:32-p271:32:32-p272:64:64-i64:64-i128:128-f80:128-n8:16:32:64-S128"
target triple = "x86_64-pc-linux-gnu"

%"class.duckdb_re2::Regexp" = type { i8, i8, i16, i16, i16, %union.anon, ptr, %union.anon.0 }
%union.anon = type { ptr }
%union.anon.0 = type { %struct.anon.1 }
%struct.anon.1 = type { i32, ptr }
%struct.anon.2 = type { i32, ptr }

; Function Attrs: mustprogress nounwind uwtable
define linkonce_odr hidden noundef i32 @_ZN10duckdb_re26Regexp4runeEv(ptr noundef nonnull align 8 dereferenceable(40) %0) #3 comdat align 2 {
  %2 = alloca ptr, align 8
  store ptr %0, ptr %2, align 8, !tbaa !14
  %3 = load ptr, ptr %2, align 8
  %4 = getelementptr inbounds nuw %"class.duckdb_re2::Regexp", ptr %3, i32 0, i32 7
  %5 = load i32, ptr %4, align 8, !tbaa !26
  ret i32 %5
}

; Function Attrs: mustprogress nounwind uwtable
define linkonce_odr hidden noundef ptr @_ZN10duckdb_re26Regexp5runesEv(ptr noundef nonnull align 8 dereferenceable(40) %0) #3 comdat align 2 {
  %2 = alloca ptr, align 8
  store ptr %0, ptr %2, align 8, !tbaa !14
  %3 = load ptr, ptr %2, align 8
  %4 = getelementptr inbounds nuw %"class.duckdb_re2::Regexp", ptr %3, i32 0, i32 7
  %5 = getelementptr inbounds nuw %struct.anon.2, ptr %4, i32 0, i32 1
  %6 = load ptr, ptr %5, align 8, !tbaa !26
  ret ptr %6
}

; Function Attrs: inlinehint mustprogress nounwind uwtable
define linkonce_odr hidden noundef i32 @_ZN10duckdb_re2anENS_6Regexp10ParseFlagsES1_(i32 noundef %0, i32 noundef %1) #7 comdat {
  %3 = alloca i32, align 4
  %4 = alloca i32, align 4
  store i32 %0, ptr %3, align 4, !tbaa !8
  store i32 %1, ptr %4, align 4, !tbaa !8
  %5 = load i32, ptr %3, align 4, !tbaa !8
  %6 = load i32, ptr %4, align 4, !tbaa !8
  %7 = and i32 %5, %6
  ret i32 %7
}

; Function Attrs: mustprogress nounwind uwtable
define linkonce_odr hidden noundef i32 @_ZN10duckdb_re26Regexp11parse_flagsEv(ptr noundef nonnull align 8 dereferenceable(40) %0) #3 comdat align 2 {
  %2 = alloca ptr, align 8
  store ptr %0, ptr %2, align 8, !tbaa !14
  %3 = load ptr, ptr %2, align 8
  %4 = getelementptr inbounds nuw %"class.duckdb_re2::Regexp", ptr %3, i32 0, i32 2
  %5 = load i16, ptr %4, align 2, !tbaa !102
  %6 = zext i16 %5 to i32
  ret i32 %6
}

; Function Attrs: mustprogress nounwind uwtable
define linkonce_odr hidden noundef ptr @_ZN10duckdb_re26Regexp3subEv(ptr noundef nonnull align 8 dereferenceable(40) %0) #3 comdat align 2 {
  %2 = alloca ptr, align 8
  %3 = alloca ptr, align 8
  store ptr %0, ptr %3, align 8, !tbaa !14
  %4 = load ptr, ptr %3, align 8
  %5 = getelementptr inbounds nuw %"class.duckdb_re2::Regexp", ptr %4, i32 0, i32 4
  %6 = load i16, ptr %5, align 2, !tbaa !34
  %7 = zext i16 %6 to i32
  %8 = icmp sle i32 %7, 1
  br i1 %8, label %9, label %11

9:                                                ; preds = %1
  %10 = getelementptr inbounds nuw %"class.duckdb_re2::Regexp", ptr %4, i32 0, i32 5
  store ptr %10, ptr %2, align 8
  br label %14

11:                                               ; preds = %1
  %12 = getelementptr inbounds nuw %"class.duckdb_re2::Regexp", ptr %4, i32 0, i32 5
  %13 = load ptr, ptr %12, align 8, !tbaa !26
  store ptr %13, ptr %2, align 8
  br label %14

14:                                               ; preds = %11, %9
  %15 = load ptr, ptr %2, align 8
  ret ptr %15
}

; Function Attrs: mustprogress nounwind uwtable
define linkonce_odr hidden noundef i32 @_ZN10duckdb_re26Regexp2opEv(ptr noundef nonnull align 8 dereferenceable(40) %0) #3 comdat align 2 {
  %2 = alloca ptr, align 8
  store ptr %0, ptr %2, align 8, !tbaa !14
  %3 = load ptr, ptr %2, align 8
  %4 = getelementptr inbounds nuw %"class.duckdb_re2::Regexp", ptr %3, i32 0, i32 0
  %5 = load i8, ptr %4, align 8, !tbaa !27
  %6 = zext i8 %5 to i32
  ret i32 %6
}

; Function Attrs: mustprogress uwtable
define hidden noundef zeroext i1 @_ZN10duckdb_re214CoalesceWalker11CanCoalesceEPNS_6RegexpES2_(ptr noundef %0, ptr noundef %1) #0 align 2 {
  %3 = alloca i1, align 1
  %4 = alloca ptr, align 8
  %5 = alloca ptr, align 8
  store ptr %0, ptr %4, align 8, !tbaa !14
  store ptr %1, ptr %5, align 8, !tbaa !14
  %6 = load ptr, ptr %4, align 8, !tbaa !14
  %7 = call noundef i32 @_ZN10duckdb_re26Regexp2opEv(ptr noundef nonnull align 8 dereferenceable(40) %6)
  %8 = icmp eq i32 %7, 7
  br i1 %8, label %21, label %9

9:                                                ; preds = %2
  %10 = load ptr, ptr %4, align 8, !tbaa !14
  %11 = call noundef i32 @_ZN10duckdb_re26Regexp2opEv(ptr noundef nonnull align 8 dereferenceable(40) %10)
  %12 = icmp eq i32 %11, 8
  br i1 %12, label %21, label %13

13:                                               ; preds = %9
  %14 = load ptr, ptr %4, align 8, !tbaa !14
  %15 = call noundef i32 @_ZN10duckdb_re26Regexp2opEv(ptr noundef nonnull align 8 dereferenceable(40) %14)
  %16 = icmp eq i32 %15, 9
  br i1 %16, label %21, label %17

17:                                               ; preds = %13
  %18 = load ptr, ptr %4, align 8, !tbaa !14
  %19 = call noundef i32 @_ZN10duckdb_re26Regexp2opEv(ptr noundef nonnull align 8 dereferenceable(40) %18)
  %20 = icmp eq i32 %19, 10
  br i1 %20, label %21, label %127

21:                                               ; preds = %17, %13, %9, %2
  %22 = load ptr, ptr %4, align 8, !tbaa !14
  %23 = call noundef ptr @_ZN10duckdb_re26Regexp3subEv(ptr noundef nonnull align 8 dereferenceable(40) %22)
  %24 = getelementptr inbounds ptr, ptr %23, i64 0
  %25 = load ptr, ptr %24, align 8, !tbaa !14
  %26 = call noundef i32 @_ZN10duckdb_re26Regexp2opEv(ptr noundef nonnull align 8 dereferenceable(40) %25)
  %27 = icmp eq i32 %26, 3
  br i1 %27, label %49, label %28

28:                                               ; preds = %21
  %29 = load ptr, ptr %4, align 8, !tbaa !14
  %30 = call noundef ptr @_ZN10duckdb_re26Regexp3subEv(ptr noundef nonnull align 8 dereferenceable(40) %29)
  %31 = getelementptr inbounds ptr, ptr %30, i64 0
  %32 = load ptr, ptr %31, align 8, !tbaa !14
  %33 = call noundef i32 @_ZN10duckdb_re26Regexp2opEv(ptr noundef nonnull align 8 dereferenceable(40) %32)
  %34 = icmp eq i32 %33, 20
  br i1 %34, label %49, label %35

35:                                               ; preds = %28
  %36 = load ptr, ptr %4, align 8, !tbaa !14
  %37 = call noundef ptr @_ZN10duckdb_re26Regexp3subEv(ptr noundef nonnull align 8 dereferenceable(40) %36)
  %38 = getelementptr inbounds ptr, ptr %37, i64 0
  %39 = load ptr, ptr %38, align 8, !tbaa !14
  %40 = call noundef i32 @_ZN10duckdb_re26Regexp2opEv(ptr noundef nonnull align 8 dereferenceable(40) %39)
  %41 = icmp eq i32 %40, 12
  br i1 %41, label %49, label %42

42:                                               ; preds = %35
  %43 = load ptr, ptr %4, align 8, !tbaa !14
  %44 = call noundef ptr @_ZN10duckdb_re26Regexp3subEv(ptr noundef nonnull align 8 dereferenceable(40) %43)
  %45 = getelementptr inbounds ptr, ptr %44, i64 0
  %46 = load ptr, ptr %45, align 8, !tbaa !14
  %47 = call noundef i32 @_ZN10duckdb_re26Regexp2opEv(ptr noundef nonnull align 8 dereferenceable(40) %46)
  %48 = icmp eq i32 %47, 13
  br i1 %48, label %49, label %127

49:                                               ; preds = %42, %35, %28, %21
  %50 = load ptr, ptr %5, align 8, !tbaa !14
  %51 = call noundef i32 @_ZN10duckdb_re26Regexp2opEv(ptr noundef nonnull align 8 dereferenceable(40) %50)
  %52 = icmp eq i32 %51, 7
  br i1 %52, label %65, label %53

53:                                               ; preds = %49
  %54 = load ptr, ptr %5, align 8, !tbaa !14
  %55 = call noundef i32 @_ZN10duckdb_re26Regexp2opEv(ptr noundef nonnull align 8 dereferenceable(40) %54)
  %56 = icmp eq i32 %55, 8
  br i1 %56, label %65, label %57

57:                                               ; preds = %53
  %58 = load ptr, ptr %5, align 8, !tbaa !14
  %59 = call noundef i32 @_ZN10duckdb_re26Regexp2opEv(ptr noundef nonnull align 8 dereferenceable(40) %58)
  %60 = icmp eq i32 %59, 9
  br i1 %60, label %65, label %61

61:                                               ; preds = %57
  %62 = load ptr, ptr %5, align 8, !tbaa !14
  %63 = call noundef i32 @_ZN10duckdb_re26Regexp2opEv(ptr noundef nonnull align 8 dereferenceable(40) %62)
  %64 = icmp eq i32 %63, 10
  br i1 %64, label %65, label %84

65:                                               ; preds = %61, %57, %53, %49
  %66 = load ptr, ptr %4, align 8, !tbaa !14
  %67 = call noundef ptr @_ZN10duckdb_re26Regexp3subEv(ptr noundef nonnull align 8 dereferenceable(40) %66)
  %68 = getelementptr inbounds ptr, ptr %67, i64 0
  %69 = load ptr, ptr %68, align 8, !tbaa !14
  %70 = load ptr, ptr %5, align 8, !tbaa !14
  %71 = call noundef ptr @_ZN10duckdb_re26Regexp3subEv(ptr noundef nonnull align 8 dereferenceable(40) %70)
  %72 = getelementptr inbounds ptr, ptr %71, i64 0
  %73 = load ptr, ptr %72, align 8, !tbaa !14
  %74 = call noundef zeroext i1 @_ZN10duckdb_re26Regexp5EqualEPS0_S1_(ptr noundef %69, ptr noundef %73)
  br i1 %74, label %75, label %84

75:                                               ; preds = %65
  %76 = load ptr, ptr %4, align 8, !tbaa !14
  %77 = call noundef i32 @_ZN10duckdb_re26Regexp11parse_flagsEv(ptr noundef nonnull align 8 dereferenceable(40) %76)
  %78 = call noundef i32 @_ZN10duckdb_re2anENS_6Regexp10ParseFlagsES1_(i32 noundef %77, i32 noundef 64)
  %79 = load ptr, ptr %5, align 8, !tbaa !14
  %80 = call noundef i32 @_ZN10duckdb_re26Regexp11parse_flagsEv(ptr noundef nonnull align 8 dereferenceable(40) %79)
  %81 = call noundef i32 @_ZN10duckdb_re2anENS_6Regexp10ParseFlagsES1_(i32 noundef %80, i32 noundef 64)
  %82 = icmp eq i32 %78, %81
  br i1 %82, label %83, label %84

83:                                               ; preds = %75
  store i1 true, ptr %3, align 1
  br label %128

84:                                               ; preds = %75, %65, %61
  %85 = load ptr, ptr %4, align 8, !tbaa !14
  %86 = call noundef ptr @_ZN10duckdb_re26Regexp3subEv(ptr noundef nonnull align 8 dereferenceable(40) %85)
  %87 = getelementptr inbounds ptr, ptr %86, i64 0
  %88 = load ptr, ptr %87, align 8, !tbaa !14
  %89 = load ptr, ptr %5, align 8, !tbaa !14
  %90 = call noundef zeroext i1 @_ZN10duckdb_re26Regexp5EqualEPS0_S1_(ptr noundef %88, ptr noundef %89)
  br i1 %90, label %91, label %92

91:                                               ; preds = %84
  store i1 true, ptr %3, align 1
  br label %128

92:                                               ; preds = %84
  %93 = load ptr, ptr %4, align 8, !tbaa !14
  %94 = call noundef ptr @_ZN10duckdb_re26Regexp3subEv(ptr noundef nonnull align 8 dereferenceable(40) %93)
  %95 = getelementptr inbounds ptr, ptr %94, i64 0
  %96 = load ptr, ptr %95, align 8, !tbaa !14
  %97 = call noundef i32 @_ZN10duckdb_re26Regexp2opEv(ptr noundef nonnull align 8 dereferenceable(40) %96)
  %98 = icmp eq i32 %97, 3
  br i1 %98, label %99, label %126

99:                                               ; preds = %92
  %100 = load ptr, ptr %5, align 8, !tbaa !14
  %101 = call noundef i32 @_ZN10duckdb_re26Regexp2opEv(ptr noundef nonnull align 8 dereferenceable(40) %100)
  %102 = icmp eq i32 %101, 4
  br i1 %102, label %103, label %126

103:                                              ; preds = %99
  %104 = load ptr, ptr %5, align 8, !tbaa !14
  %105 = call noundef ptr @_ZN10duckdb_re26Regexp5runesEv(ptr noundef nonnull align 8 dereferenceable(40) %104)
  %106 = getelementptr inbounds i32, ptr %105, i64 0
  %107 = load i32, ptr %106, align 4, !tbaa !32
  %108 = load ptr, ptr %4, align 8, !tbaa !14
  %109 = call noundef ptr @_ZN10duckdb_re26Regexp3subEv(ptr noundef nonnull align 8 dereferenceable(40) %108)
  %110 = getelementptr inbounds ptr, ptr %109, i64 0
  %111 = load ptr, ptr %110, align 8, !tbaa !14
  %112 = call noundef i32 @_ZN10duckdb_re26Regexp4runeEv(ptr noundef nonnull align 8 dereferenceable(40) %111)
  %113 = icmp eq i32 %107, %112
  br i1 %113, label %114, label %126

114:                                              ; preds = %103
  %115 = load ptr, ptr %4, align 8, !tbaa !14
  %116 = call noundef ptr @_ZN10duckdb_re26Regexp3subEv(ptr noundef nonnull align 8 dereferenceable(40) %115)
  %117 = getelementptr inbounds ptr, ptr %116, i64 0
  %118 = load ptr, ptr %117, align 8, !tbaa !14
  %119 = call noundef i32 @_ZN10duckdb_re26Regexp11parse_flagsEv(ptr noundef nonnull align 8 dereferenceable(40) %118)
  %120 = call noundef i32 @_ZN10duckdb_re2anENS_6Regexp10ParseFlagsES1_(i32 noundef %119, i32 noundef 1)
  %121 = load ptr, ptr %5, align 8, !tbaa !14
  %122 = call noundef i32 @_ZN10duckdb_re26Regexp11parse_flagsEv(ptr noundef nonnull align 8 dereferenceable(40) %121)
  %123 = call noundef i32 @_ZN10duckdb_re2anENS_6Regexp10ParseFlagsES1_(i32 noundef %122, i32 noundef 1)
  %124 = icmp eq i32 %120, %123
  br i1 %124, label %125, label %126

125:                                              ; preds = %114
  store i1 true, ptr %3, align 1
  br label %128

126:                                              ; preds = %114, %103, %99, %92
  br label %127

127:                                              ; preds = %126, %42, %17
  store i1 false, ptr %3, align 1
  br label %128

128:                                              ; preds = %127, %125, %91, %83
  %129 = load i1, ptr %3, align 1
  ret i1 %129
}