; Function Attrs: mustprogress uwtable
define hidden noundef zeroext i1 @_ZN10duckdb_re214CoalesceWalker11CanCoalesceEPNS_6RegexpES2_(ptr noundef readonly captures(none) %0, ptr noundef %1) local_unnamed_addr #0 align 2 {
  %3 = load i8, ptr %0, align 8, !tbaa !45
  %4 = add i8 %3, -7
  %switch = icmp ult i8 %4, 4
  br i1 %switch, label %5, label %63

5:                                                ; preds = %2
  %6 = getelementptr inbounds nuw i8, ptr %0, i64 6
  %7 = load i16, ptr %6, align 2, !tbaa !49
  %8 = icmp ult i16 %7, 2
  %9 = getelementptr inbounds nuw i8, ptr %0, i64 8
  %10 = load ptr, ptr %9, align 8
  %.0.i = select i1 %8, ptr %9, ptr %10
  %11 = load ptr, ptr %.0.i, align 8, !tbaa !50
  %12 = load i8, ptr %11, align 8, !tbaa !45
  switch i8 %12, label %63 [
    i8 3, label %13
    i8 20, label %13
    i8 12, label %13
    i8 13, label %13
  ]

13:                                               ; preds = %5, %5, %5, %5
  %14 = load i8, ptr %1, align 8, !tbaa !45
  %15 = add i8 %14, -7
  %switch35 = icmp ult i8 %15, 4
  br i1 %switch35, label %16, label %32

16:                                               ; preds = %13
  %17 = getelementptr inbounds nuw i8, ptr %1, i64 6
  %18 = load i16, ptr %17, align 2, !tbaa !49
  %19 = icmp ult i16 %18, 2
  %20 = getelementptr inbounds nuw i8, ptr %1, i64 8
  %21 = load ptr, ptr %20, align 8
  %.0.i29 = select i1 %19, ptr %20, ptr %21
  %22 = load ptr, ptr %.0.i29, align 8, !tbaa !50
  %23 = tail call noundef zeroext i1 @_ZN10duckdb_re26Regexp5EqualEPS0_S1_(ptr noundef nonnull %11, ptr noundef %22)
  br i1 %23, label %24, label %32

24:                                               ; preds = %16
  %25 = getelementptr inbounds nuw i8, ptr %0, i64 2
  %26 = load i16, ptr %25, align 2, !tbaa !85
  %27 = getelementptr inbounds nuw i8, ptr %1, i64 2
  %28 = load i16, ptr %27, align 2, !tbaa !85
  %29 = xor i16 %28, %26
  %30 = and i16 %29, 64
  %31 = icmp eq i16 %30, 0
  br i1 %31, label %64, label %32

32:                                               ; preds = %13, %24, %16
  %33 = load i16, ptr %6, align 2, !tbaa !49
  %34 = icmp ult i16 %33, 2
  %35 = load ptr, ptr %9, align 8
  %.0.i30 = select i1 %34, ptr %9, ptr %35
  %36 = load ptr, ptr %.0.i30, align 8, !tbaa !50
  %37 = tail call noundef zeroext i1 @_ZN10duckdb_re26Regexp5EqualEPS0_S1_(ptr noundef %36, ptr noundef nonnull %1)
  br i1 %37, label %64, label %38

38:                                               ; preds = %32
  %39 = load i16, ptr %6, align 2, !tbaa !49
  %40 = icmp ult i16 %39, 2
  %41 = load ptr, ptr %9, align 8
  %.0.i31 = select i1 %40, ptr %9, ptr %41
  %42 = load ptr, ptr %.0.i31, align 8, !tbaa !50
  %43 = load i8, ptr %42, align 8, !tbaa !45
  %44 = icmp eq i8 %43, 3
  br i1 %44, label %45, label %63

45:                                               ; preds = %38
  %46 = load i8, ptr %1, align 8, !tbaa !45
  %47 = icmp eq i8 %46, 4
  br i1 %47, label %48, label %63

48:                                               ; preds = %45
  %49 = getelementptr inbounds nuw i8, ptr %1, i64 32
  %50 = load ptr, ptr %49, align 8, !tbaa !21
  %51 = load i32, ptr %50, align 4, !tbaa !92
  %52 = getelementptr inbounds nuw i8, ptr %42, i64 24
  %53 = load i32, ptr %52, align 8, !tbaa !21
  %54 = icmp eq i32 %51, %53
  br i1 %54, label %55, label %63

55:                                               ; preds = %48
  %56 = getelementptr inbounds nuw i8, ptr %42, i64 2
  %57 = load i16, ptr %56, align 2, !tbaa !85
  %58 = getelementptr inbounds nuw i8, ptr %1, i64 2
  %59 = load i16, ptr %58, align 2, !tbaa !85
  %60 = xor i16 %59, %57
  %61 = and i16 %60, 1
  %62 = icmp eq i16 %61, 0
  br i1 %62, label %64, label %63

63:                                               ; preds = %2, %5, %38, %45, %48, %55
  br label %64

64:                                               ; preds = %55, %32, %24, %63
  %.0 = phi i1 [ false, %63 ], [ true, %24 ], [ true, %32 ], [ true, %55 ]
  ret i1 %.0
}